target datalayout = "e-m:e-p270:32:32-p271:32:32-p272:64:64-i64:64-i128:128-f80:128-n8:16:32:64-S128"
target triple = "x86_64-pc-linux-gnu"

%"class.absl::log_internal::Voidify" = type { i8 }
%"class.absl::log_internal::LogMessageFatal" = type { %"class.absl::log_internal::LogMessage" }
%"class.absl::log_internal::LogMessage" = type { %"class.absl::base_internal::ErrnoSaver", %"class.std::unique_ptr.2" }
%"class.absl::base_internal::ErrnoSaver" = type { i32 }
%"class.std::unique_ptr.2" = type { %"struct.std::__uniq_ptr_data.3" }
%"struct.std::__uniq_ptr_data.3" = type { %"class.std::__uniq_ptr_impl.4" }
%"class.std::__uniq_ptr_impl.4" = type { %"class.std::tuple.5" }
%"class.std::tuple.5" = type { %"struct.std::_Tuple_impl.6" }
%"struct.std::_Tuple_impl.6" = type { %"struct.std::_Head_base.9" }
%"struct.std::_Head_base.9" = type { ptr }

@.str.4 = private unnamed_addr constant [128 x i8] c"generated/home/dtcxzyw/WorkSpace/Projects/compilers/llvm-opt-benchmark/bench/abseil-cpp/abseil-cpp/absl/log/check_test_impl.inc\00", align 1
@.str.29 = private unnamed_addr constant [32 x i8] c"TEMPLATE_SUM(MACRO_ONE, 2) == 3\00", align 1
@.str.30 = private unnamed_addr constant [3 x i8] c"xy\00", align 1
@.str.31 = private unnamed_addr constant [25 x i8] c"CONCAT(\22x\22, \22y\22) == \22xy\22\00", align 1

; Function Attrs: inlinehint mustprogress uwtable
define linkonce_odr dso_local noundef ptr @_ZN4absl12log_internal12Check_EQImplIiiEEPKcRKT_RKT0_S3_(ptr noundef nonnull align 4 dereferenceable(4) %0, ptr noundef nonnull align 4 dereferenceable(4) %1, ptr noundef %2) #4 comdat {
  %4 = alloca ptr, align 8
  %5 = alloca ptr, align 8
  %6 = alloca ptr, align 8
  store ptr %0, ptr %4, align 8, !tbaa !75
  store ptr %1, ptr %5, align 8, !tbaa !75
  store ptr %2, ptr %6, align 8, !tbaa !19
  %7 = load ptr, ptr %4, align 8, !tbaa !75
  %8 = load i32, ptr %7, align 4, !tbaa !23
  %9 = load ptr, ptr %5, align 8, !tbaa !75
  %10 = load i32, ptr %9, align 4, !tbaa !23
  %11 = icmp eq i32 %8, %10
  %12 = zext i1 %11 to i64
  %13 = call i64 @llvm.expect.i64(i64 %12, i64 1)
  %14 = icmp ne i64 %13, 0
  br i1 %14, label %15, label %16

15:                                               ; preds = %3
  br label %25

16:                                               ; preds = %3
  %17 = load ptr, ptr %4, align 8, !tbaa !75
  %18 = load i32, ptr %17, align 4, !tbaa !23
  %19 = sext i32 %18 to i64
  %20 = load ptr, ptr %5, align 8, !tbaa !75
  %21 = load i32, ptr %20, align 4, !tbaa !23
  %22 = sext i32 %21 to i64
  %23 = load ptr, ptr %6, align 8, !tbaa !19
  %24 = call noundef nonnull ptr @_ZN4absl12log_internal17MakeCheckOpStringIllEEPKcT_T0_S3_(i64 noundef %19, i64 noundef %22, ptr noundef %23)
  br label %25

25:                                               ; preds = %16, %15
  %26 = phi ptr [ null, %15 ], [ %24, %16 ]
  ret ptr %26
}

; Function Attrs: mustprogress nounwind uwtable
define linkonce_odr dso_local void @_ZNKO4absl12log_internal7VoidifyaaINS0_10LogMessageEEEvRKT_(ptr noundef nonnull align 1 dereferenceable(1) %0, ptr noundef nonnull align 8 dereferenceable(16) %1) #8 comdat align 2 {
  %3 = alloca ptr, align 8
  %4 = alloca ptr, align 8
  store ptr %0, ptr %3, align 8, !tbaa !51
  store ptr %1, ptr %4, align 8, !tbaa !53
  ret void
}

; Function Attrs: mustprogress nounwind uwtable
define linkonce_odr dso_local noundef nonnull align 8 dereferenceable(16) ptr @_ZN4absl12log_internal10LogMessage14InternalStreamEv(ptr noundef nonnull align 8 dereferenceable(16) %0) #8 comdat align 2 {
  %2 = alloca ptr, align 8
  store ptr %0, ptr %2, align 8, !tbaa !53
  %3 = load ptr, ptr %2, align 8
  ret ptr %3
}

; Function Attrs: mustprogress nounwind uwtable
define linkonce_odr dso_local noundef ptr @_ZN4absl13implicit_castIPKcEET_NS_8internal13type_identityIS3_E4typeE(ptr noundef %0) #8 comdat {
  %2 = alloca ptr, align 8
  store ptr %0, ptr %2, align 8, !tbaa !19
  %3 = load ptr, ptr %2, align 8, !tbaa !19
  ret ptr %3
}

; Function Attrs: inlinehint mustprogress uwtable
define linkonce_odr dso_local noundef ptr @_ZN4absl12log_internal12Check_EQImplEiiPKc(i32 noundef %0, i32 noundef %1, ptr noundef %2) #4 comdat {
  %4 = alloca i32, align 4
  %5 = alloca i32, align 4
  %6 = alloca ptr, align 8
  store i32 %0, ptr %4, align 4, !tbaa !23
  store i32 %1, ptr %5, align 4, !tbaa !23
  store ptr %2, ptr %6, align 8, !tbaa !19
  %7 = load ptr, ptr %6, align 8, !tbaa !19
  %8 = call noundef ptr @_ZN4absl12log_internal12Check_EQImplIiiEEPKcRKT_RKT0_S3_(ptr noundef nonnull align 4 dereferenceable(4) %4, ptr noundef nonnull align 4 dereferenceable(4) %5, ptr noundef %7)
  ret ptr %8
}

; Function Attrs: inlinehint mustprogress nounwind uwtable
define linkonce_odr dso_local noundef i32 @_ZN4absl12log_internal21GetReferenceableValueEi(i32 noundef %0) #6 comdat {
  %2 = alloca i32, align 4
  store i32 %0, ptr %2, align 4, !tbaa !23
  %3 = load i32, ptr %2, align 4, !tbaa !23
  ret i32 %3
}

; Function Attrs: mustprogress nounwind uwtable
define linkonce_odr dso_local noundef i32 @_ZN17absl_log_internal3sumILi1ELi2EEEiv() #8 comdat {
  ret i32 3
}

; Function Attrs: mustprogress uwtable
define dso_local void @_ZN17absl_log_internal40CHECKTest_TestPassingMacroExpansion_Test8TestBodyEv(ptr noundef nonnull align 8 dereferenceable(16) %0) unnamed_addr #9 align 2 personality ptr @__gxx_personality_v0 {
  %2 = alloca ptr, align 8
  %3 = alloca ptr, align 8
  %4 = alloca %"class.absl::log_internal::Voidify", align 1
  %5 = alloca %"class.absl::log_internal::LogMessageFatal", align 8
  %6 = alloca ptr, align 8
  %7 = alloca i32, align 4
  %8 = alloca ptr, align 8
  %9 = alloca %"class.absl::log_internal::Voidify", align 1
  %10 = alloca %"class.absl::log_internal::LogMessageFatal", align 8
  store ptr %0, ptr %2, align 8, !tbaa !96
  br label %11

11:                                               ; preds = %1
  call void @llvm.lifetime.start.p0(i64 8, ptr %3) #3
  %12 = call noundef i32 @_ZN17absl_log_internal3sumILi1ELi2EEEiv()
  %13 = call noundef i32 @_ZN4absl12log_internal21GetReferenceableValueEi(i32 noundef %12)
  %14 = call noundef i32 @_ZN4absl12log_internal21GetReferenceableValueEi(i32 noundef 3)
  %15 = call noundef ptr @_ZN4absl12log_internal12Check_EQImplEiiPKc(i32 noundef %13, i32 noundef %14, ptr noundef @.str.29)
  store ptr %15, ptr %3, align 8, !tbaa !19
  %16 = load ptr, ptr %3, align 8, !tbaa !19
  %17 = icmp ne ptr %16, null
  br i1 %17, label %19, label %18

18:                                               ; preds = %11
  call void @llvm.lifetime.end.p0(i64 8, ptr %3) #3
  br label %30

19:                                               ; preds = %11
  call void @llvm.lifetime.start.p0(i64 1, ptr %4) #3
  call void @llvm.lifetime.start.p0(i64 16, ptr %5) #3
  %20 = load ptr, ptr %3, align 8, !tbaa !19
  %21 = call noundef ptr @_ZN4absl13implicit_castIPKcEET_NS_8internal13type_identityIS3_E4typeE(ptr noundef %20)
  call void @_ZN4absl12log_internal15LogMessageFatalC1EPKciS3_(ptr noundef nonnull align 8 dereferenceable(16) %5, ptr noundef @.str.4, i32 noundef 137, ptr noundef %21) #29
  %22 = invoke noundef nonnull align 8 dereferenceable(16) ptr @_ZN4absl12log_internal10LogMessage14InternalStreamEv(ptr noundef nonnull align 8 dereferenceable(16) %5)
          to label %23 unwind label %25

23:                                               ; preds = %19
  invoke void @_ZNKO4absl12log_internal7VoidifyaaINS0_10LogMessageEEEvRKT_(ptr noundef nonnull align 1 dereferenceable(1) %4, ptr noundef nonnull align 8 dereferenceable(16) %22)
          to label %24 unwind label %25

24:                                               ; preds = %23
  call void @_ZN4absl12log_internal15LogMessageFatalD1Ev(ptr noundef nonnull align 8 dereferenceable(16) %5) #28
  unreachable

25:                                               ; preds = %23, %19
  %26 = landingpad { ptr, i32 }
          cleanup
  %27 = extractvalue { ptr, i32 } %26, 0
  store ptr %27, ptr %6, align 8
  %28 = extractvalue { ptr, i32 } %26, 1
  store i32 %28, ptr %7, align 4
  call void @_ZN4absl12log_internal15LogMessageFatalD1Ev(ptr noundef nonnull align 8 dereferenceable(16) %5) #28
  unreachable

29:                                               ; No predecessors!
  call void @llvm.lifetime.end.p0(i64 16, ptr %5) #3
  call void @llvm.lifetime.end.p0(i64 1, ptr %4) #3
  call void @llvm.lifetime.end.p0(i64 8, ptr %3) #3
  br label %48

30:                                               ; preds = %18
  br label %31

31:                                               ; preds = %30
  call void @llvm.lifetime.start.p0(i64 8, ptr %8) #3
  %32 = call noundef ptr @_ZN4absl12log_internal19CheckstrcmptrueImplEPKcS2_S2_(ptr noundef @.str.30, ptr noundef @.str.30, ptr noundef @.str.31)
  store ptr %32, ptr %8, align 8, !tbaa !19
  %33 = load ptr, ptr %8, align 8, !tbaa !19
  %34 = icmp ne ptr %33, null
  br i1 %34, label %36, label %35

35:                                               ; preds = %31
  call void @llvm.lifetime.end.p0(i64 8, ptr %8) #3
  br label %47

36:                                               ; preds = %31
  call void @llvm.lifetime.start.p0(i64 1, ptr %9) #3
  call void @llvm.lifetime.start.p0(i64 16, ptr %10) #3
  %37 = load ptr, ptr %8, align 8, !tbaa !19
  %38 = call noundef ptr @_ZN4absl13implicit_castIPKcEET_NS_8internal13type_identityIS3_E4typeE(ptr noundef %37)
  call void @_ZN4absl12log_internal15LogMessageFatalC1EPKciS3_(ptr noundef nonnull align 8 dereferenceable(16) %10, ptr noundef @.str.4, i32 noundef 138, ptr noundef %38) #29
  %39 = invoke noundef nonnull align 8 dereferenceable(16) ptr @_ZN4absl12log_internal10LogMessage14InternalStreamEv(ptr noundef nonnull align 8 dereferenceable(16) %10)
          to label %40 unwind label %42

40:                                               ; preds = %36
  invoke void @_ZNKO4absl12log_internal7VoidifyaaINS0_10LogMessageEEEvRKT_(ptr noundef nonnull align 1 dereferenceable(1) %9, ptr noundef nonnull align 8 dereferenceable(16) %39)
          to label %41 unwind label %42

41:                                               ; preds = %40
  call void @_ZN4absl12log_internal15LogMessageFatalD1Ev(ptr noundef nonnull align 8 dereferenceable(16) %10) #28
  unreachable

42:                                               ; preds = %40, %36
  %43 = landingpad { ptr, i32 }
          cleanup
  %44 = extractvalue { ptr, i32 } %43, 0
  store ptr %44, ptr %6, align 8
  %45 = extractvalue { ptr, i32 } %43, 1
  store i32 %45, ptr %7, align 4
  call void @_ZN4absl12log_internal15LogMessageFatalD1Ev(ptr noundef nonnull align 8 dereferenceable(16) %10) #28
  unreachable

46:                                               ; No predecessors!
  call void @llvm.lifetime.end.p0(i64 16, ptr %10) #3
  call void @llvm.lifetime.end.p0(i64 1, ptr %9) #3
  call void @llvm.lifetime.end.p0(i64 8, ptr %8) #3
  br label %48

47:                                               ; preds = %35
  ret void

48:                                               ; preds = %46, %29
  %49 = load ptr, ptr %6, align 8
  %50 = load i32, ptr %7, align 4
  %51 = insertvalue { ptr, i32 } poison, ptr %49, 0
  %52 = insertvalue { ptr, i32 } %51, i32 %50, 1
  resume { ptr, i32 } %52
}