; Function Attrs: mustprogress uwtable
define dso_local void @_ZN17absl_log_internal40CHECKTest_TestPassingMacroExpansion_Test8TestBodyEv(ptr nonnull readnone align 8 captures(none) %0) unnamed_addr #5 align 2 personality ptr @__gxx_personality_v0 {
  %2 = alloca %"class.absl::log_internal::LogMessageFatal", align 8
  %3 = tail call noundef ptr @_ZN4absl12log_internal19CheckstrcmptrueImplEPKcS2_S2_(ptr noundef nonnull @.str.30, ptr noundef nonnull @.str.30, ptr noundef nonnull @.str.31)
  %.not5 = icmp eq ptr %3, null
  br i1 %.not5, label %4, label %5

4:                                                ; preds = %1
  ret void

5:                                                ; preds = %1
  call void @llvm.lifetime.start.p0(i64 16, ptr nonnull %2) #29
  call void @_ZN4absl12log_internal15LogMessageFatalC1EPKciS3_(ptr noundef nonnull align 8 dereferenceable(16) %2, ptr noundef nonnull @.str.4, i32 noundef 138, ptr noundef nonnull %3) #31
  call void @_ZN4absl12log_internal15LogMessageFatalD1Ev(ptr noundef nonnull align 8 dereferenceable(16) %2) #30
  unreachable
}